#include <math.h>
#include <stdio.h>
#include <stdlib.h>
#include <string.h>
#include <iostream>
using namespace std;

/**
* @file 1000010424_4.cpp
* @author ???
* @date 2010?12?8
* @description
* ??????: ???????     
*/



int main()
{
	char input[101];							//??????
	char *place, *ptr;							//?????????

	cin.getline(input, 102);					//?????

	place = input;
	ptr = input;

	while(true)
	{
		while(*ptr != ' ' && *ptr != '\0')		//?????????????
			*place++ = *ptr++;					//?????????

		if(*ptr == '\0')						//????????
			break;

		*place++ = ' ';							//?????????

		while(*ptr == ' ')
			ptr++;								//???????????????????????
	}

	*place = '\0';								//?????

	cout << input << endl;

	return 0;
}